; Function Attrs: mustprogress uwtable
define hidden noundef i32 @_ZN4cvc58internal8rewriter23IsListTypeClassCallback12getTypeClassENS0_12NodeTemplateILb0EEE(ptr nocapture nonnull readnone align 8 %this, ptr nocapture noundef readonly %v) unnamed_addr #3 align 2 personality ptr @__gxx_personality_v0 {
entry:
  %agg.tmp = alloca %"class.cvc5::internal::NodeTemplate", align 8
  %0 = load ptr, ptr %v, align 8
  store ptr %0, ptr %agg.tmp, align 8
  %call = call noundef zeroext i1 @_ZN4cvc58internal4expr9isListVarENS0_12NodeTemplateILb0EEE(ptr noundef nonnull %agg.tmp)
  %cond = zext i1 %call to i32
  ret i32 %cond
}